(dp0
Vproject_steps
p1
(lp2
VCalculatorHttpServer
p3
aVContactsHttpServer
p4
asVproject_name
p5
VRest_Intro
p6
sVproject_directory
p7
VE:\u005cCoursePilot\u005cJSREST
p8
sVlanguage
p9
Vjavascript
p10
sVproject_page
p11
Vhttp://mission-rnd.github.io/nodejs-rest.htm
p12
sVproject_status
p13
I1
sVproject_gitrepo
p14
Vhttps://github.com/mission-rnd/mrnd-nodejs-http
p15
sVproject_user
p16
VMeghana-Setty
p17
sVproject_validator
p18
Vjasmine-node --junitreport --captureExceptions spec/tests/
p19
s.